target datalayout = "e-m:e-p270:32:32-p271:32:32-p272:64:64-i64:64-i128:128-f80:128-n8:16:32:64-S128"
target triple = "x86_64-pc-linux-gnu"

%"struct.std::_Rb_tree_header" = type { %"struct.std::_Rb_tree_node_base", i64 }
%"struct.std::_Rb_tree_node_base" = type { i32, ptr, ptr, ptr }
%"struct.QListData::Data" = type { %"class.QtPrivate::RefCount", i32, i32, i32, [1 x ptr] }
%"class.QtPrivate::RefCount" = type { %class.QBasicAtomicInteger }
%class.QBasicAtomicInteger = type { %"struct.std::atomic" }
%"struct.std::atomic" = type { %"struct.std::__atomic_base" }
%"struct.std::__atomic_base" = type { i32 }
%class.MeshShaderRenderPlugin = type { %class.QObject, %class.RenderPlugin.base, i32, i32, %"class.std::map.16", i8, %class.QList, ptr, %class.MeshLabPlugin, %class.MeshLabPluginLogger }
%class.QObject = type { ptr, %class.QScopedPointer }
%class.QScopedPointer = type { ptr }
%class.RenderPlugin.base = type { ptr }
%"class.std::map.16" = type { %"class.std::_Rb_tree.17" }
%"class.std::_Rb_tree.17" = type { %"struct.std::_Rb_tree<QString, std::pair<const QString, ShaderInfo>, std::_Select1st<std::pair<const QString, ShaderInfo>>, std::less<QString>>::_Rb_tree_impl" }
%"struct.std::_Rb_tree<QString, std::pair<const QString, ShaderInfo>, std::_Select1st<std::pair<const QString, ShaderInfo>>, std::less<QString>>::_Rb_tree_impl" = type { %"struct.std::_Rb_tree_key_compare.21", %"struct.std::_Rb_tree_header" }
%"struct.std::_Rb_tree_key_compare.21" = type { %"struct.std::less.22" }
%"struct.std::less.22" = type { i8 }
%class.QList = type { %union.anon }
%union.anon = type { %struct.QListData }
%struct.QListData = type { ptr }
%class.MeshLabPlugin = type { ptr, i8, %class.QFileInfo }
%class.QFileInfo = type { %class.QSharedDataPointer }
%class.QSharedDataPointer = type { ptr }
%class.MeshLabPluginLogger = type { ptr, ptr }

@_ZN9QListData11shared_nullE = external global %"struct.QListData::Data", align 8

; Function Attrs: noreturn nounwind uwtable
define linkonce_odr hidden void @__clang_call_terminate(ptr noundef %0) #9 comdat {
  %2 = call ptr @__cxa_begin_catch(ptr %0) #3
  call void @_ZSt9terminatev() #15
  unreachable
}

; Function Attrs: mustprogress nounwind uwtable
define linkonce_odr void @_ZNSt15_Rb_tree_header8_M_resetEv(ptr noundef nonnull align 8 dereferenceable(40) %0) #4 comdat align 2 {
  %2 = alloca ptr, align 8
  store ptr %0, ptr %2, align 8
  %3 = load ptr, ptr %2, align 8
  %4 = getelementptr inbounds %"struct.std::_Rb_tree_header", ptr %3, i32 0, i32 0
  %5 = getelementptr inbounds %"struct.std::_Rb_tree_node_base", ptr %4, i32 0, i32 1
  store ptr null, ptr %5, align 8
  %6 = getelementptr inbounds %"struct.std::_Rb_tree_header", ptr %3, i32 0, i32 0
  %7 = getelementptr inbounds %"struct.std::_Rb_tree_header", ptr %3, i32 0, i32 0
  %8 = getelementptr inbounds %"struct.std::_Rb_tree_node_base", ptr %7, i32 0, i32 2
  store ptr %6, ptr %8, align 8
  %9 = getelementptr inbounds %"struct.std::_Rb_tree_header", ptr %3, i32 0, i32 0
  %10 = getelementptr inbounds %"struct.std::_Rb_tree_header", ptr %3, i32 0, i32 0
  %11 = getelementptr inbounds %"struct.std::_Rb_tree_node_base", ptr %10, i32 0, i32 3
  store ptr %9, ptr %11, align 8
  %12 = getelementptr inbounds %"struct.std::_Rb_tree_header", ptr %3, i32 0, i32 1
  store i64 0, ptr %12, align 8
  ret void
}

; Function Attrs: mustprogress nounwind uwtable
define linkonce_odr void @_ZNSt15__new_allocatorISt13_Rb_tree_nodeISt4pairIK7QString10ShaderInfoEEEC2Ev(ptr noundef nonnull align 1 dereferenceable(1) %0) unnamed_addr #4 comdat align 2 {
  %2 = alloca ptr, align 8
  store ptr %0, ptr %2, align 8
  ret void
}

; Function Attrs: mustprogress nounwind uwtable
define linkonce_odr void @_ZNSt15_Rb_tree_headerC2Ev(ptr noundef nonnull align 8 dereferenceable(40) %0) unnamed_addr #4 comdat align 2 personality ptr @__gxx_personality_v0 {
  %2 = alloca ptr, align 8
  store ptr %0, ptr %2, align 8
  %3 = load ptr, ptr %2, align 8
  %4 = getelementptr inbounds %"struct.std::_Rb_tree_header", ptr %3, i32 0, i32 0
  %5 = getelementptr inbounds %"struct.std::_Rb_tree_node_base", ptr %4, i32 0, i32 0
  store i32 0, ptr %5, align 8
  invoke void @_ZNSt15_Rb_tree_header8_M_resetEv(ptr noundef nonnull align 8 dereferenceable(40) %3)
          to label %6 unwind label %7

6:                                                ; preds = %1
  ret void

7:                                                ; preds = %1
  %8 = landingpad { ptr, i32 }
          catch ptr null
  %9 = extractvalue { ptr, i32 } %8, 0
  call void @__clang_call_terminate(ptr %9) #15
  unreachable
}

; Function Attrs: mustprogress nounwind uwtable
define linkonce_odr void @_ZNSt20_Rb_tree_key_compareISt4lessI7QStringEEC2Ev(ptr noundef nonnull align 1 dereferenceable(1) %0) unnamed_addr #4 comdat align 2 {
  %2 = alloca ptr, align 8
  store ptr %0, ptr %2, align 8
  ret void
}

; Function Attrs: mustprogress nounwind uwtable
define linkonce_odr void @_ZNSaISt13_Rb_tree_nodeISt4pairIK7QString10ShaderInfoEEEC2Ev(ptr noundef nonnull align 1 dereferenceable(1) %0) unnamed_addr #4 comdat align 2 {
  %2 = alloca ptr, align 8
  store ptr %0, ptr %2, align 8
  %3 = load ptr, ptr %2, align 8
  call void @_ZNSt15__new_allocatorISt13_Rb_tree_nodeISt4pairIK7QString10ShaderInfoEEEC2Ev(ptr noundef nonnull align 1 dereferenceable(1) %3) #3
  ret void
}

; Function Attrs: mustprogress nounwind uwtable
define linkonce_odr void @_ZNSt8_Rb_treeI7QStringSt4pairIKS0_10ShaderInfoESt10_Select1stIS4_ESt4lessIS0_ESaIS4_EE13_Rb_tree_implIS8_Lb1EEC2Ev(ptr noundef nonnull align 8 dereferenceable(48) %0) unnamed_addr #4 comdat align 2 {
  %2 = alloca ptr, align 8
  store ptr %0, ptr %2, align 8
  %3 = load ptr, ptr %2, align 8
  call void @_ZNSaISt13_Rb_tree_nodeISt4pairIK7QString10ShaderInfoEEEC2Ev(ptr noundef nonnull align 1 dereferenceable(1) %3) #3
  call void @_ZNSt20_Rb_tree_key_compareISt4lessI7QStringEEC2Ev(ptr noundef nonnull align 1 dereferenceable(1) %3) #3
  %4 = getelementptr inbounds i8, ptr %3, i64 8
  call void @_ZNSt15_Rb_tree_headerC2Ev(ptr noundef nonnull align 8 dereferenceable(40) %4) #3
  ret void
}

; Function Attrs: mustprogress nounwind uwtable
define linkonce_odr void @_ZNSt8_Rb_treeI7QStringSt4pairIKS0_10ShaderInfoESt10_Select1stIS4_ESt4lessIS0_ESaIS4_EEC2Ev(ptr noundef nonnull align 8 dereferenceable(48) %0) unnamed_addr #4 comdat align 2 {
  %2 = alloca ptr, align 8
  store ptr %0, ptr %2, align 8
  %3 = load ptr, ptr %2, align 8
  %4 = getelementptr inbounds %"class.std::_Rb_tree.17", ptr %3, i32 0, i32 0
  call void @_ZNSt8_Rb_treeI7QStringSt4pairIKS0_10ShaderInfoESt10_Select1stIS4_ESt4lessIS0_ESaIS4_EE13_Rb_tree_implIS8_Lb1EEC2Ev(ptr noundef nonnull align 8 dereferenceable(48) %4) #3
  ret void
}

; Function Attrs: mustprogress nounwind uwtable
define linkonce_odr void @_ZN12RenderPluginD2Ev(ptr noundef nonnull align 8 dereferenceable(8) %0, ptr noundef %1) unnamed_addr #4 comdat align 2 {
  %3 = alloca ptr, align 8
  %4 = alloca ptr, align 8
  store ptr %0, ptr %3, align 8
  store ptr %1, ptr %4, align 8
  ret void
}

; Function Attrs: mustprogress nounwind uwtable
define linkonce_odr void @_ZN5QListIP7QActionEC2Ev(ptr noundef nonnull align 8 dereferenceable(8) %0) unnamed_addr #4 comdat align 2 {
  %2 = alloca ptr, align 8
  store ptr %0, ptr %2, align 8
  %3 = load ptr, ptr %2, align 8
  %4 = getelementptr inbounds %class.QList, ptr %3, i32 0, i32 0
  store ptr @_ZN9QListData11shared_nullE, ptr %4, align 8
  ret void
}

; Function Attrs: mustprogress nounwind uwtable
define linkonce_odr void @_ZNSt3mapI7QString10ShaderInfoSt4lessIS0_ESaISt4pairIKS0_S1_EEEC2Ev(ptr noundef nonnull align 8 dereferenceable(48) %0) unnamed_addr #4 comdat align 2 {
  %2 = alloca ptr, align 8
  store ptr %0, ptr %2, align 8
  %3 = load ptr, ptr %2, align 8
  %4 = getelementptr inbounds %"class.std::map.16", ptr %3, i32 0, i32 0
  call void @_ZNSt8_Rb_treeI7QStringSt4pairIKS0_10ShaderInfoESt10_Select1stIS4_ESt4lessIS0_ESaIS4_EEC2Ev(ptr noundef nonnull align 8 dereferenceable(48) %4) #3
  ret void
}

; Function Attrs: mustprogress nounwind uwtable
define linkonce_odr void @_ZN12RenderPluginC2Ev(ptr noundef nonnull align 8 dereferenceable(8) %0, ptr noundef %1) unnamed_addr #4 comdat align 2 {
  %3 = alloca ptr, align 8
  %4 = alloca ptr, align 8
  store ptr %0, ptr %3, align 8
  store ptr %1, ptr %4, align 8
  %5 = load ptr, ptr %3, align 8
  %6 = load ptr, ptr %4, align 8
  %7 = load ptr, ptr %6, align 8
  store ptr %7, ptr %5, align 8
  %8 = getelementptr inbounds ptr, ptr %6, i64 1
  %9 = load ptr, ptr %8, align 8
  %10 = load ptr, ptr %5, align 8
  %11 = getelementptr i8, ptr %10, i64 -24
  %12 = load i64, ptr %11, align 8
  %13 = getelementptr inbounds i8, ptr %5, i64 %12
  store ptr %9, ptr %13, align 8
  %14 = getelementptr inbounds ptr, ptr %6, i64 2
  %15 = load ptr, ptr %14, align 8
  %16 = load ptr, ptr %5, align 8
  %17 = getelementptr i8, ptr %16, i64 -32
  %18 = load i64, ptr %17, align 8
  %19 = getelementptr inbounds i8, ptr %5, i64 %18
  store ptr %15, ptr %19, align 8
  ret void
}

; Function Attrs: mustprogress uwtable
define void @_ZN22MeshShaderRenderPluginC2Ev(ptr noundef nonnull align 8 dereferenceable(104) %0, ptr noundef %1) unnamed_addr #5 align 2 personality ptr @__gxx_personality_v0 {
  %3 = alloca ptr, align 8
  %4 = alloca ptr, align 8
  %5 = alloca ptr, align 8
  %6 = alloca i32, align 4
  store ptr %0, ptr %3, align 8
  store ptr %1, ptr %4, align 8
  %7 = load ptr, ptr %3, align 8
  %8 = load ptr, ptr %4, align 8
  call void @_ZN7QObjectC2EPS_(ptr noundef nonnull align 8 dereferenceable(16) %7, ptr noundef null)
  %9 = getelementptr inbounds i8, ptr %7, i64 16
  %10 = getelementptr inbounds ptr, ptr %8, i64 1
  invoke void @_ZN12RenderPluginC2Ev(ptr noundef nonnull align 8 dereferenceable(8) %9, ptr noundef %10)
          to label %11 unwind label %33

11:                                               ; preds = %2
  %12 = load ptr, ptr %8, align 8
  store ptr %12, ptr %7, align 8
  %13 = getelementptr inbounds ptr, ptr %8, i64 4
  %14 = load ptr, ptr %13, align 8
  %15 = getelementptr inbounds i8, ptr %7, i64 16
  store ptr %14, ptr %15, align 8
  %16 = getelementptr inbounds ptr, ptr %8, i64 5
  %17 = load ptr, ptr %16, align 8
  %18 = load ptr, ptr %7, align 8
  %19 = getelementptr i8, ptr %18, i64 -24
  %20 = load i64, ptr %19, align 8
  %21 = getelementptr inbounds i8, ptr %7, i64 %20
  store ptr %17, ptr %21, align 8
  %22 = getelementptr inbounds ptr, ptr %8, i64 6
  %23 = load ptr, ptr %22, align 8
  %24 = load ptr, ptr %7, align 8
  %25 = getelementptr i8, ptr %24, i64 -32
  %26 = load i64, ptr %25, align 8
  %27 = getelementptr inbounds i8, ptr %7, i64 %26
  store ptr %23, ptr %27, align 8
  %28 = getelementptr inbounds %class.MeshShaderRenderPlugin, ptr %7, i32 0, i32 4
  call void @_ZNSt3mapI7QString10ShaderInfoSt4lessIS0_ESaISt4pairIKS0_S1_EEEC2Ev(ptr noundef nonnull align 8 dereferenceable(48) %28) #3
  %29 = getelementptr inbounds %class.MeshShaderRenderPlugin, ptr %7, i32 0, i32 6
  call void @_ZN5QListIP7QActionEC2Ev(ptr noundef nonnull align 8 dereferenceable(8) %29) #3
  %30 = getelementptr inbounds %class.MeshShaderRenderPlugin, ptr %7, i32 0, i32 5
  store i8 0, ptr %30, align 8
  %31 = getelementptr inbounds %class.MeshShaderRenderPlugin, ptr %7, i32 0, i32 7
  store ptr null, ptr %31, align 8
  invoke void @_ZN22MeshShaderRenderPlugin14initActionListEv(ptr noundef nonnull align 8 dereferenceable(104) %7)
          to label %32 unwind label %37

32:                                               ; preds = %11
  ret void

33:                                               ; preds = %2
  %34 = landingpad { ptr, i32 }
          cleanup
  %35 = extractvalue { ptr, i32 } %34, 0
  store ptr %35, ptr %5, align 8
  %36 = extractvalue { ptr, i32 } %34, 1
  store i32 %36, ptr %6, align 4
  br label %43

37:                                               ; preds = %11
  %38 = landingpad { ptr, i32 }
          cleanup
  %39 = extractvalue { ptr, i32 } %38, 0
  store ptr %39, ptr %5, align 8
  %40 = extractvalue { ptr, i32 } %38, 1
  store i32 %40, ptr %6, align 4
  call void @_ZN5QListIP7QActionED2Ev(ptr noundef nonnull align 8 dereferenceable(8) %29) #3
  call void @_ZNSt3mapI7QString10ShaderInfoSt4lessIS0_ESaISt4pairIKS0_S1_EEED2Ev(ptr noundef nonnull align 8 dereferenceable(48) %28) #3
  %41 = getelementptr inbounds i8, ptr %7, i64 16
  %42 = getelementptr inbounds ptr, ptr %8, i64 1
  call void @_ZN12RenderPluginD2Ev(ptr noundef nonnull align 8 dereferenceable(8) %41, ptr noundef %42) #3
  br label %43

43:                                               ; preds = %37, %33
  call void @_ZN7QObjectD2Ev(ptr noundef nonnull align 8 dereferenceable(16) %7) #3
  br label %44

44:                                               ; preds = %43
  %45 = load ptr, ptr %5, align 8
  %46 = load i32, ptr %6, align 4
  %47 = insertvalue { ptr, i32 } poison, ptr %45, 0
  %48 = insertvalue { ptr, i32 } %47, i32 %46, 1
  resume { ptr, i32 } %48
}