; Function Attrs: mustprogress uwtable
define void @_ZN22MeshShaderRenderPluginC2Ev(ptr noundef nonnull align 8 dereferenceable(104) %0, ptr nocapture noundef readonly %1) unnamed_addr #9 align 2 personality ptr @__gxx_personality_v0 {
  tail call void @_ZN7QObjectC2EPS_(ptr noundef nonnull align 8 dereferenceable(16) %0, ptr noundef null)
  %3 = getelementptr inbounds i8, ptr %0, i64 16
  %4 = getelementptr inbounds i8, ptr %1, i64 8
  %5 = load ptr, ptr %4, align 8
  store ptr %5, ptr %3, align 8
  %6 = getelementptr inbounds i8, ptr %1, i64 16
  %7 = load ptr, ptr %6, align 8
  %8 = getelementptr i8, ptr %5, i64 -24
  %9 = load i64, ptr %8, align 8
  %10 = getelementptr inbounds i8, ptr %3, i64 %9
  store ptr %7, ptr %10, align 8
  %11 = getelementptr inbounds i8, ptr %1, i64 24
  %12 = load ptr, ptr %11, align 8
  %13 = load ptr, ptr %3, align 8
  %14 = getelementptr i8, ptr %13, i64 -32
  %15 = load i64, ptr %14, align 8
  %16 = getelementptr inbounds i8, ptr %3, i64 %15
  store ptr %12, ptr %16, align 8
  %17 = load ptr, ptr %1, align 8
  store ptr %17, ptr %0, align 8
  %18 = getelementptr inbounds i8, ptr %1, i64 32
  %19 = load ptr, ptr %18, align 8
  store ptr %19, ptr %3, align 8
  %20 = getelementptr inbounds i8, ptr %1, i64 40
  %21 = load ptr, ptr %20, align 8
  %22 = getelementptr i8, ptr %17, i64 -24
  %23 = load i64, ptr %22, align 8
  %24 = getelementptr inbounds i8, ptr %0, i64 %23
  store ptr %21, ptr %24, align 8
  %25 = getelementptr inbounds i8, ptr %1, i64 48
  %26 = load ptr, ptr %25, align 8
  %27 = load ptr, ptr %0, align 8
  %28 = getelementptr i8, ptr %27, i64 -32
  %29 = load i64, ptr %28, align 8
  %30 = getelementptr inbounds i8, ptr %0, i64 %29
  store ptr %26, ptr %30, align 8
  %31 = getelementptr inbounds i8, ptr %0, i64 40
  store i32 0, ptr %31, align 8
  %32 = getelementptr inbounds i8, ptr %0, i64 48
  store ptr null, ptr %32, align 8
  %33 = getelementptr inbounds i8, ptr %0, i64 56
  store ptr %31, ptr %33, align 8
  %34 = getelementptr inbounds i8, ptr %0, i64 64
  store ptr %31, ptr %34, align 8
  %35 = getelementptr inbounds i8, ptr %0, i64 72
  store i64 0, ptr %35, align 8
  %36 = getelementptr inbounds i8, ptr %0, i64 88
  store ptr @_ZN9QListData11shared_nullE, ptr %36, align 8
  %37 = getelementptr inbounds i8, ptr %0, i64 80
  store i8 0, ptr %37, align 8
  %38 = getelementptr inbounds i8, ptr %0, i64 96
  store ptr null, ptr %38, align 8
  invoke void @_ZN22MeshShaderRenderPlugin14initActionListEv(ptr noundef nonnull align 8 dereferenceable(104) %0)
          to label %39 unwind label %40

39:                                               ; preds = %2
  ret void

40:                                               ; preds = %2
  %41 = landingpad { ptr, i32 }
          cleanup
  %42 = getelementptr inbounds i8, ptr %0, i64 32
  tail call void @_ZN5QListIP7QActionED2Ev(ptr noundef nonnull align 8 dereferenceable(8) %36) #22
  tail call void @_ZNSt3mapI7QString10ShaderInfoSt4lessIS0_ESaISt4pairIKS0_S1_EEED2Ev(ptr noundef nonnull align 8 dereferenceable(48) %42) #22
  tail call void @_ZN7QObjectD2Ev(ptr noundef nonnull align 8 dereferenceable(16) %0) #22
  resume { ptr, i32 } %41
}